target datalayout = "e-m:e-p270:32:32-p271:32:32-p272:64:64-i64:64-i128:128-f80:128-n8:16:32:64-S128"
target triple = "x86_64-pc-linux-gnu"

%struct.Tas_Par_t_ = type { i32, i32, i32, i32, i32, i32, i32, float, i32, i32, i32, i32, i32, i32 }
%struct.Tas_Man_t_ = type { %struct.Tas_Par_t_, ptr, %struct.Tas_Que_t_, %struct.Tas_Que_t_, %struct.Tas_Que_t_, ptr, ptr, ptr, ptr, %struct.Tas_Sto_t_, ptr, ptr, i32, ptr, ptr, i32, i32, i32, i32, i32, i32, i32, i64, i64, i64, i64 }
%struct.Tas_Que_t_ = type { i32, i32, i32, ptr }
%struct.Tas_Sto_t_ = type { i32, i32, ptr }
%struct.Vec_Int_t_ = type { i32, i32, ptr }
%struct.Vec_Ptr_t_ = type { i32, i32, ptr }
%struct.Gia_Man_t_ = type { ptr, ptr, i32, i32, i32, i32, ptr, ptr, i32, i32, i32, ptr, ptr, %struct.Vec_Int_t_, %struct.Vec_Int_t_, i32, i32, i32, %struct.Vec_Int_t_, ptr, ptr, ptr, i32, i32, i32, i32, ptr, ptr, ptr, ptr, ptr, i32, i32, ptr, i32, ptr, ptr, ptr, ptr, ptr, ptr, ptr, ptr, ptr, ptr, ptr, ptr, ptr, ptr, ptr, ptr, ptr, ptr, %struct.Vec_Int_t_, %struct.Vec_Int_t_, ptr, ptr, ptr, ptr, ptr, ptr, ptr, ptr, ptr, ptr, ptr, ptr, ptr, ptr, ptr, ptr, ptr, ptr, ptr, ptr, ptr, i32, float, float, ptr, ptr, i32, ptr, ptr, ptr, ptr, ptr, ptr, ptr, ptr, ptr, ptr, ptr, ptr, ptr, ptr, ptr, i64, i64, ptr, ptr, i32, i32, i32, i32, i32, i32, i32, i32, i32, i32, i32, i32, ptr, ptr, ptr, ptr, ptr, ptr, ptr, ptr, i32, i32, i32, ptr, i32, i32, ptr, ptr, ptr, ptr, ptr, ptr, i32, i32, ptr, %struct.Vec_Int_t_, %struct.Vec_Int_t_, %struct.Vec_Int_t_, ptr, ptr, ptr, i32, i32, i32, i32, ptr, ptr, ptr, ptr, ptr }

; Function Attrs: inlinehint nounwind uwtable
define internal i32 @Gia_ManObjNum(ptr noundef %0) #5 {
  %2 = alloca ptr, align 8
  store ptr %0, ptr %2, align 8, !tbaa !20
  %3 = load ptr, ptr %2, align 8, !tbaa !20
  %4 = getelementptr inbounds nuw %struct.Gia_Man_t_, ptr %3, i32 0, i32 4
  %5 = load i32, ptr %4, align 8, !tbaa !64
  ret i32 %5
}

; Function Attrs: inlinehint nounwind uwtable
define internal ptr @Vec_PtrAlloc(i32 noundef %0) #5 {
  %2 = alloca i32, align 4
  %3 = alloca ptr, align 8
  store i32 %0, ptr %2, align 4, !tbaa !22
  call void @llvm.lifetime.start.p0(i64 8, ptr %3) #11
  %4 = call noalias ptr @malloc(i64 noundef 16) #13
  store ptr %4, ptr %3, align 8, !tbaa !59
  %5 = load i32, ptr %2, align 4, !tbaa !22
  %6 = icmp sgt i32 %5, 0
  br i1 %6, label %7, label %11

7:                                                ; preds = %1
  %8 = load i32, ptr %2, align 4, !tbaa !22
  %9 = icmp slt i32 %8, 8
  br i1 %9, label %10, label %11

10:                                               ; preds = %7
  store i32 8, ptr %2, align 4, !tbaa !22
  br label %11

11:                                               ; preds = %10, %7, %1
  %12 = load ptr, ptr %3, align 8, !tbaa !59
  %13 = getelementptr inbounds nuw %struct.Vec_Ptr_t_, ptr %12, i32 0, i32 1
  store i32 0, ptr %13, align 4, !tbaa !60
  %14 = load i32, ptr %2, align 4, !tbaa !22
  %15 = load ptr, ptr %3, align 8, !tbaa !59
  %16 = getelementptr inbounds nuw %struct.Vec_Ptr_t_, ptr %15, i32 0, i32 0
  store i32 %14, ptr %16, align 8, !tbaa !62
  %17 = load ptr, ptr %3, align 8, !tbaa !59
  %18 = getelementptr inbounds nuw %struct.Vec_Ptr_t_, ptr %17, i32 0, i32 0
  %19 = load i32, ptr %18, align 8, !tbaa !62
  %20 = icmp ne i32 %19, 0
  br i1 %20, label %21, label %28

21:                                               ; preds = %11
  %22 = load ptr, ptr %3, align 8, !tbaa !59
  %23 = getelementptr inbounds nuw %struct.Vec_Ptr_t_, ptr %22, i32 0, i32 0
  %24 = load i32, ptr %23, align 8, !tbaa !62
  %25 = sext i32 %24 to i64
  %26 = mul i64 8, %25
  %27 = call noalias ptr @malloc(i64 noundef %26) #13
  br label %29

28:                                               ; preds = %11
  br label %29

29:                                               ; preds = %28, %21
  %30 = phi ptr [ %27, %21 ], [ null, %28 ]
  %31 = load ptr, ptr %3, align 8, !tbaa !59
  %32 = getelementptr inbounds nuw %struct.Vec_Ptr_t_, ptr %31, i32 0, i32 2
  store ptr %30, ptr %32, align 8, !tbaa !63
  %33 = load ptr, ptr %3, align 8, !tbaa !59
  call void @llvm.lifetime.end.p0(i64 8, ptr %3) #11
  ret ptr %33
}

; Function Attrs: inlinehint nounwind uwtable
define internal ptr @Vec_IntAlloc(i32 noundef %0) #5 {
  %2 = alloca i32, align 4
  %3 = alloca ptr, align 8
  store i32 %0, ptr %2, align 4, !tbaa !22
  call void @llvm.lifetime.start.p0(i64 8, ptr %3) #11
  %4 = call noalias ptr @malloc(i64 noundef 16) #13
  store ptr %4, ptr %3, align 8, !tbaa !54
  %5 = load i32, ptr %2, align 4, !tbaa !22
  %6 = icmp sgt i32 %5, 0
  br i1 %6, label %7, label %11

7:                                                ; preds = %1
  %8 = load i32, ptr %2, align 4, !tbaa !22
  %9 = icmp slt i32 %8, 16
  br i1 %9, label %10, label %11

10:                                               ; preds = %7
  store i32 16, ptr %2, align 4, !tbaa !22
  br label %11

11:                                               ; preds = %10, %7, %1
  %12 = load ptr, ptr %3, align 8, !tbaa !54
  %13 = getelementptr inbounds nuw %struct.Vec_Int_t_, ptr %12, i32 0, i32 1
  store i32 0, ptr %13, align 4, !tbaa !55
  %14 = load i32, ptr %2, align 4, !tbaa !22
  %15 = load ptr, ptr %3, align 8, !tbaa !54
  %16 = getelementptr inbounds nuw %struct.Vec_Int_t_, ptr %15, i32 0, i32 0
  store i32 %14, ptr %16, align 8, !tbaa !57
  %17 = load ptr, ptr %3, align 8, !tbaa !54
  %18 = getelementptr inbounds nuw %struct.Vec_Int_t_, ptr %17, i32 0, i32 0
  %19 = load i32, ptr %18, align 8, !tbaa !57
  %20 = icmp ne i32 %19, 0
  br i1 %20, label %21, label %28

21:                                               ; preds = %11
  %22 = load ptr, ptr %3, align 8, !tbaa !54
  %23 = getelementptr inbounds nuw %struct.Vec_Int_t_, ptr %22, i32 0, i32 0
  %24 = load i32, ptr %23, align 8, !tbaa !57
  %25 = sext i32 %24 to i64
  %26 = mul i64 4, %25
  %27 = call noalias ptr @malloc(i64 noundef %26) #13
  br label %29

28:                                               ; preds = %11
  br label %29

29:                                               ; preds = %28, %21
  %30 = phi ptr [ %27, %21 ], [ null, %28 ]
  %31 = load ptr, ptr %3, align 8, !tbaa !54
  %32 = getelementptr inbounds nuw %struct.Vec_Int_t_, ptr %31, i32 0, i32 2
  store ptr %30, ptr %32, align 8, !tbaa !58
  %33 = load ptr, ptr %3, align 8, !tbaa !54
  call void @llvm.lifetime.end.p0(i64 8, ptr %3) #11
  ret ptr %33
}

; Function Attrs: nounwind uwtable
define void @Tas_SetDefaultParams(ptr noundef %0) #0 {
  %2 = alloca ptr, align 8
  store ptr %0, ptr %2, align 8, !tbaa !3
  %3 = load ptr, ptr %2, align 8, !tbaa !3
  call void @llvm.memset.p0.i64(ptr align 4 %3, i8 0, i64 56, i1 false)
  %4 = load ptr, ptr %2, align 8, !tbaa !3
  %5 = getelementptr inbounds nuw %struct.Tas_Par_t_, ptr %4, i32 0, i32 0
  store i32 2000, ptr %5, align 4, !tbaa !8
  %6 = load ptr, ptr %2, align 8, !tbaa !3
  %7 = getelementptr inbounds nuw %struct.Tas_Par_t_, ptr %6, i32 0, i32 1
  store i32 2000, ptr %7, align 4, !tbaa !12
  %8 = load ptr, ptr %2, align 8, !tbaa !3
  %9 = getelementptr inbounds nuw %struct.Tas_Par_t_, ptr %8, i32 0, i32 9
  store i32 0, ptr %9, align 4, !tbaa !13
  %10 = load ptr, ptr %2, align 8, !tbaa !3
  %11 = getelementptr inbounds nuw %struct.Tas_Par_t_, ptr %10, i32 0, i32 10
  store i32 1, ptr %11, align 4, !tbaa !14
  %12 = load ptr, ptr %2, align 8, !tbaa !3
  %13 = getelementptr inbounds nuw %struct.Tas_Par_t_, ptr %12, i32 0, i32 11
  store i32 0, ptr %13, align 4, !tbaa !15
  %14 = load ptr, ptr %2, align 8, !tbaa !3
  %15 = getelementptr inbounds nuw %struct.Tas_Par_t_, ptr %14, i32 0, i32 12
  store i32 0, ptr %15, align 4, !tbaa !16
  %16 = load ptr, ptr %2, align 8, !tbaa !3
  %17 = getelementptr inbounds nuw %struct.Tas_Par_t_, ptr %16, i32 0, i32 13
  store i32 1, ptr %17, align 4, !tbaa !17
  %18 = load ptr, ptr %2, align 8, !tbaa !3
  %19 = getelementptr inbounds nuw %struct.Tas_Par_t_, ptr %18, i32 0, i32 7
  store float 0x3FEE666660000000, ptr %19, align 4, !tbaa !18
  %20 = load ptr, ptr %2, align 8, !tbaa !3
  %21 = getelementptr inbounds nuw %struct.Tas_Par_t_, ptr %20, i32 0, i32 8
  store i32 1, ptr %21, align 4, !tbaa !19
  ret void
}

; Function Attrs: nounwind uwtable
define ptr @Tas_ManAlloc(ptr noundef %0, i32 noundef %1) #0 {
  %3 = alloca ptr, align 8
  %4 = alloca i32, align 4
  %5 = alloca ptr, align 8
  store ptr %0, ptr %3, align 8, !tbaa !20
  store i32 %1, ptr %4, align 4, !tbaa !22
  call void @llvm.lifetime.start.p0(i64 8, ptr %5) #11
  %6 = call noalias ptr @calloc(i64 noundef 1, i64 noundef 288) #12
  store ptr %6, ptr %5, align 8, !tbaa !23
  %7 = load ptr, ptr %5, align 8, !tbaa !23
  %8 = getelementptr inbounds nuw %struct.Tas_Man_t_, ptr %7, i32 0, i32 0
  call void @Tas_SetDefaultParams(ptr noundef %8)
  %9 = load ptr, ptr %3, align 8, !tbaa !20
  %10 = load ptr, ptr %5, align 8, !tbaa !23
  %11 = getelementptr inbounds nuw %struct.Tas_Man_t_, ptr %10, i32 0, i32 1
  store ptr %9, ptr %11, align 8, !tbaa !25
  %12 = load i32, ptr %4, align 4, !tbaa !22
  %13 = load ptr, ptr %5, align 8, !tbaa !23
  %14 = getelementptr inbounds nuw %struct.Tas_Man_t_, ptr %13, i32 0, i32 0
  %15 = getelementptr inbounds nuw %struct.Tas_Par_t_, ptr %14, i32 0, i32 0
  store i32 %12, ptr %15, align 8, !tbaa !35
  %16 = load ptr, ptr %5, align 8, !tbaa !23
  %17 = getelementptr inbounds nuw %struct.Tas_Man_t_, ptr %16, i32 0, i32 4
  %18 = getelementptr inbounds nuw %struct.Tas_Que_t_, ptr %17, i32 0, i32 2
  store i32 10000, ptr %18, align 8, !tbaa !36
  %19 = load ptr, ptr %5, align 8, !tbaa !23
  %20 = getelementptr inbounds nuw %struct.Tas_Man_t_, ptr %19, i32 0, i32 3
  %21 = getelementptr inbounds nuw %struct.Tas_Que_t_, ptr %20, i32 0, i32 2
  store i32 10000, ptr %21, align 8, !tbaa !37
  %22 = load ptr, ptr %5, align 8, !tbaa !23
  %23 = getelementptr inbounds nuw %struct.Tas_Man_t_, ptr %22, i32 0, i32 2
  %24 = getelementptr inbounds nuw %struct.Tas_Que_t_, ptr %23, i32 0, i32 2
  store i32 10000, ptr %24, align 8, !tbaa !38
  %25 = load ptr, ptr %5, align 8, !tbaa !23
  %26 = getelementptr inbounds nuw %struct.Tas_Man_t_, ptr %25, i32 0, i32 2
  %27 = getelementptr inbounds nuw %struct.Tas_Que_t_, ptr %26, i32 0, i32 2
  %28 = load i32, ptr %27, align 8, !tbaa !38
  %29 = sext i32 %28 to i64
  %30 = mul i64 8, %29
  %31 = call noalias ptr @malloc(i64 noundef %30) #13
  %32 = load ptr, ptr %5, align 8, !tbaa !23
  %33 = getelementptr inbounds nuw %struct.Tas_Man_t_, ptr %32, i32 0, i32 2
  %34 = getelementptr inbounds nuw %struct.Tas_Que_t_, ptr %33, i32 0, i32 3
  store ptr %31, ptr %34, align 8, !tbaa !39
  %35 = load ptr, ptr %5, align 8, !tbaa !23
  %36 = getelementptr inbounds nuw %struct.Tas_Man_t_, ptr %35, i32 0, i32 3
  %37 = getelementptr inbounds nuw %struct.Tas_Que_t_, ptr %36, i32 0, i32 2
  %38 = load i32, ptr %37, align 8, !tbaa !37
  %39 = sext i32 %38 to i64
  %40 = mul i64 8, %39
  %41 = call noalias ptr @malloc(i64 noundef %40) #13
  %42 = load ptr, ptr %5, align 8, !tbaa !23
  %43 = getelementptr inbounds nuw %struct.Tas_Man_t_, ptr %42, i32 0, i32 3
  %44 = getelementptr inbounds nuw %struct.Tas_Que_t_, ptr %43, i32 0, i32 3
  store ptr %41, ptr %44, align 8, !tbaa !40
  %45 = load ptr, ptr %5, align 8, !tbaa !23
  %46 = getelementptr inbounds nuw %struct.Tas_Man_t_, ptr %45, i32 0, i32 4
  %47 = getelementptr inbounds nuw %struct.Tas_Que_t_, ptr %46, i32 0, i32 2
  %48 = load i32, ptr %47, align 8, !tbaa !36
  %49 = sext i32 %48 to i64
  %50 = mul i64 8, %49
  %51 = call noalias ptr @malloc(i64 noundef %50) #13
  %52 = load ptr, ptr %5, align 8, !tbaa !23
  %53 = getelementptr inbounds nuw %struct.Tas_Man_t_, ptr %52, i32 0, i32 4
  %54 = getelementptr inbounds nuw %struct.Tas_Que_t_, ptr %53, i32 0, i32 3
  store ptr %51, ptr %54, align 8, !tbaa !41
  %55 = load ptr, ptr %5, align 8, !tbaa !23
  %56 = getelementptr inbounds nuw %struct.Tas_Man_t_, ptr %55, i32 0, i32 4
  %57 = getelementptr inbounds nuw %struct.Tas_Que_t_, ptr %56, i32 0, i32 1
  store i32 1, ptr %57, align 4, !tbaa !42
  %58 = load ptr, ptr %5, align 8, !tbaa !23
  %59 = getelementptr inbounds nuw %struct.Tas_Man_t_, ptr %58, i32 0, i32 4
  %60 = getelementptr inbounds nuw %struct.Tas_Que_t_, ptr %59, i32 0, i32 0
  store i32 1, ptr %60, align 8, !tbaa !43
  %61 = call ptr @Vec_IntAlloc(i32 noundef 1000)
  %62 = load ptr, ptr %5, align 8, !tbaa !23
  %63 = getelementptr inbounds nuw %struct.Tas_Man_t_, ptr %62, i32 0, i32 7
  store ptr %61, ptr %63, align 8, !tbaa !44
  %64 = call ptr @Vec_IntAlloc(i32 noundef 1000)
  %65 = load ptr, ptr %5, align 8, !tbaa !23
  %66 = getelementptr inbounds nuw %struct.Tas_Man_t_, ptr %65, i32 0, i32 6
  store ptr %64, ptr %66, align 8, !tbaa !45
  %67 = call ptr @Vec_PtrAlloc(i32 noundef 1000)
  %68 = load ptr, ptr %5, align 8, !tbaa !23
  %69 = getelementptr inbounds nuw %struct.Tas_Man_t_, ptr %68, i32 0, i32 8
  store ptr %67, ptr %69, align 8, !tbaa !46
  %70 = load ptr, ptr %5, align 8, !tbaa !23
  %71 = getelementptr inbounds nuw %struct.Tas_Man_t_, ptr %70, i32 0, i32 9
  %72 = getelementptr inbounds nuw %struct.Tas_Sto_t_, ptr %71, i32 0, i32 0
  store i32 16, ptr %72, align 8, !tbaa !47
  %73 = load ptr, ptr %5, align 8, !tbaa !23
  %74 = getelementptr inbounds nuw %struct.Tas_Man_t_, ptr %73, i32 0, i32 9
  %75 = getelementptr inbounds nuw %struct.Tas_Sto_t_, ptr %74, i32 0, i32 1
  store i32 10000, ptr %75, align 4, !tbaa !48
  %76 = load ptr, ptr %5, align 8, !tbaa !23
  %77 = getelementptr inbounds nuw %struct.Tas_Man_t_, ptr %76, i32 0, i32 9
  %78 = getelementptr inbounds nuw %struct.Tas_Sto_t_, ptr %77, i32 0, i32 1
  %79 = load i32, ptr %78, align 4, !tbaa !48
  %80 = sext i32 %79 to i64
  %81 = mul i64 4, %80
  %82 = call noalias ptr @malloc(i64 noundef %81) #13
  %83 = load ptr, ptr %5, align 8, !tbaa !23
  %84 = getelementptr inbounds nuw %struct.Tas_Man_t_, ptr %83, i32 0, i32 9
  %85 = getelementptr inbounds nuw %struct.Tas_Sto_t_, ptr %84, i32 0, i32 2
  store ptr %82, ptr %85, align 8, !tbaa !49
  %86 = load ptr, ptr %3, align 8, !tbaa !20
  %87 = call i32 @Gia_ManObjNum(ptr noundef %86)
  %88 = mul nsw i32 2, %87
  %89 = sext i32 %88 to i64
  %90 = call noalias ptr @calloc(i64 noundef %89, i64 noundef 4) #12
  %91 = load ptr, ptr %5, align 8, !tbaa !23
  %92 = getelementptr inbounds nuw %struct.Tas_Man_t_, ptr %91, i32 0, i32 10
  store ptr %90, ptr %92, align 8, !tbaa !50
  %93 = call ptr @Vec_IntAlloc(i32 noundef 100)
  %94 = load ptr, ptr %5, align 8, !tbaa !23
  %95 = getelementptr inbounds nuw %struct.Tas_Man_t_, ptr %94, i32 0, i32 11
  store ptr %93, ptr %95, align 8, !tbaa !51
  %96 = load ptr, ptr %3, align 8, !tbaa !20
  %97 = call i32 @Gia_ManObjNum(ptr noundef %96)
  %98 = sext i32 %97 to i64
  %99 = call noalias ptr @calloc(i64 noundef %98, i64 noundef 4) #12
  %100 = load ptr, ptr %5, align 8, !tbaa !23
  %101 = getelementptr inbounds nuw %struct.Tas_Man_t_, ptr %100, i32 0, i32 13
  store ptr %99, ptr %101, align 8, !tbaa !52
  %102 = call ptr @Vec_IntAlloc(i32 noundef 100)
  %103 = load ptr, ptr %5, align 8, !tbaa !23
  %104 = getelementptr inbounds nuw %struct.Tas_Man_t_, ptr %103, i32 0, i32 14
  store ptr %102, ptr %104, align 8, !tbaa !53
  %105 = load ptr, ptr %5, align 8, !tbaa !23
  call void @llvm.lifetime.end.p0(i64 8, ptr %5) #11
  ret ptr %105
}