; Function Attrs: mustprogress nofree nounwind willreturn memory(write, argmem: read, inaccessiblemem: readwrite) uwtable
define noalias noundef ptr @Tas_ManAlloc(ptr noundef %0, i32 noundef %1) local_unnamed_addr #2 {
  %3 = tail call noalias dereferenceable_or_null(288) ptr @calloc(i64 noundef 1, i64 noundef 288) #23
  %4 = getelementptr inbounds nuw i8, ptr %3, i64 4
  store i32 2000, ptr %4, align 4, !tbaa !9
  %5 = getelementptr inbounds nuw i8, ptr %3, i64 40
  store i32 1, ptr %5, align 4, !tbaa !11
  %6 = getelementptr inbounds nuw i8, ptr %3, i64 52
  store i32 1, ptr %6, align 4, !tbaa !14
  %7 = getelementptr inbounds nuw i8, ptr %3, i64 28
  store float 0x3FEE666660000000, ptr %7, align 4, !tbaa !15
  %8 = getelementptr inbounds nuw i8, ptr %3, i64 32
  store i32 1, ptr %8, align 4, !tbaa !16
  %9 = getelementptr inbounds nuw i8, ptr %3, i64 56
  store ptr %0, ptr %9, align 8, !tbaa !17
  store i32 %1, ptr %3, align 8, !tbaa !29
  %10 = getelementptr inbounds nuw i8, ptr %3, i64 112
  %11 = getelementptr inbounds nuw i8, ptr %3, i64 120
  store i32 10000, ptr %11, align 8, !tbaa !30
  %12 = getelementptr inbounds nuw i8, ptr %3, i64 96
  store i32 10000, ptr %12, align 8, !tbaa !31
  %13 = getelementptr inbounds nuw i8, ptr %3, i64 72
  store i32 10000, ptr %13, align 8, !tbaa !32
  %14 = tail call noalias dereferenceable_or_null(80000) ptr @malloc(i64 noundef 80000) #24
  %15 = getelementptr inbounds nuw i8, ptr %3, i64 80
  store ptr %14, ptr %15, align 8, !tbaa !33
  %16 = tail call noalias dereferenceable_or_null(80000) ptr @malloc(i64 noundef 80000) #24
  %17 = getelementptr inbounds nuw i8, ptr %3, i64 104
  store ptr %16, ptr %17, align 8, !tbaa !34
  %18 = tail call noalias dereferenceable_or_null(80000) ptr @malloc(i64 noundef 80000) #24
  %19 = getelementptr inbounds nuw i8, ptr %3, i64 128
  store ptr %18, ptr %19, align 8, !tbaa !35
  %20 = getelementptr inbounds nuw i8, ptr %3, i64 116
  store i32 1, ptr %20, align 4, !tbaa !36
  store i32 1, ptr %10, align 8, !tbaa !37
  %21 = tail call noalias dereferenceable_or_null(16) ptr @malloc(i64 noundef 16) #24
  %22 = getelementptr inbounds nuw i8, ptr %21, i64 4
  store i32 0, ptr %22, align 4, !tbaa !38
  store i32 1000, ptr %21, align 8, !tbaa !40
  %23 = tail call noalias dereferenceable_or_null(4000) ptr @malloc(i64 noundef 4000) #24
  %24 = getelementptr inbounds nuw i8, ptr %21, i64 8
  store ptr %23, ptr %24, align 8, !tbaa !41
  %25 = getelementptr inbounds nuw i8, ptr %3, i64 152
  store ptr %21, ptr %25, align 8, !tbaa !42
  %26 = tail call noalias dereferenceable_or_null(16) ptr @malloc(i64 noundef 16) #24
  %27 = getelementptr inbounds nuw i8, ptr %26, i64 4
  store i32 0, ptr %27, align 4, !tbaa !38
  store i32 1000, ptr %26, align 8, !tbaa !40
  %28 = tail call noalias dereferenceable_or_null(4000) ptr @malloc(i64 noundef 4000) #24
  %29 = getelementptr inbounds nuw i8, ptr %26, i64 8
  store ptr %28, ptr %29, align 8, !tbaa !41
  %30 = getelementptr inbounds nuw i8, ptr %3, i64 144
  store ptr %26, ptr %30, align 8, !tbaa !43
  %31 = tail call noalias dereferenceable_or_null(16) ptr @malloc(i64 noundef 16) #24
  %32 = getelementptr inbounds nuw i8, ptr %31, i64 4
  store i32 0, ptr %32, align 4, !tbaa !44
  store i32 1000, ptr %31, align 8, !tbaa !46
  %33 = tail call noalias dereferenceable_or_null(8000) ptr @malloc(i64 noundef 8000) #24
  %34 = getelementptr inbounds nuw i8, ptr %31, i64 8
  store ptr %33, ptr %34, align 8, !tbaa !47
  %35 = getelementptr inbounds nuw i8, ptr %3, i64 160
  store ptr %31, ptr %35, align 8, !tbaa !48
  %36 = getelementptr inbounds nuw i8, ptr %3, i64 168
  store i32 16, ptr %36, align 8, !tbaa !49
  %37 = getelementptr inbounds nuw i8, ptr %3, i64 172
  store i32 10000, ptr %37, align 4, !tbaa !50
  %38 = tail call noalias dereferenceable_or_null(40000) ptr @malloc(i64 noundef 40000) #24
  %39 = getelementptr inbounds nuw i8, ptr %3, i64 176
  store ptr %38, ptr %39, align 8, !tbaa !51
  %40 = getelementptr i8, ptr %0, i64 24
  %.val = load i32, ptr %40, align 8, !tbaa !52
  %41 = shl nsw i32 %.val, 1
  %42 = sext i32 %41 to i64
  %43 = tail call noalias ptr @calloc(i64 noundef %42, i64 noundef 4) #23
  %44 = getelementptr inbounds nuw i8, ptr %3, i64 184
  store ptr %43, ptr %44, align 8, !tbaa !66
  %45 = tail call noalias dereferenceable_or_null(16) ptr @malloc(i64 noundef 16) #24
  %46 = getelementptr inbounds nuw i8, ptr %45, i64 4
  store i32 0, ptr %46, align 4, !tbaa !38
  store i32 100, ptr %45, align 8, !tbaa !40
  %47 = tail call noalias dereferenceable_or_null(400) ptr @malloc(i64 noundef 400) #24
  %48 = getelementptr inbounds nuw i8, ptr %45, i64 8
  store ptr %47, ptr %48, align 8, !tbaa !41
  %49 = getelementptr inbounds nuw i8, ptr %3, i64 192
  store ptr %45, ptr %49, align 8, !tbaa !67
  %50 = sext i32 %.val to i64
  %51 = tail call noalias ptr @calloc(i64 noundef %50, i64 noundef 4) #23
  %52 = getelementptr inbounds nuw i8, ptr %3, i64 208
  store ptr %51, ptr %52, align 8, !tbaa !68
  %53 = tail call noalias dereferenceable_or_null(16) ptr @malloc(i64 noundef 16) #24
  %54 = getelementptr inbounds nuw i8, ptr %53, i64 4
  store i32 0, ptr %54, align 4, !tbaa !38
  store i32 100, ptr %53, align 8, !tbaa !40
  %55 = tail call noalias dereferenceable_or_null(400) ptr @malloc(i64 noundef 400) #24
  %56 = getelementptr inbounds nuw i8, ptr %53, i64 8
  store ptr %55, ptr %56, align 8, !tbaa !41
  %57 = getelementptr inbounds nuw i8, ptr %3, i64 216
  store ptr %53, ptr %57, align 8, !tbaa !69
  ret ptr %3
}